target datalayout = "e-m:e-p270:32:32-p271:32:32-p272:64:64-i64:64-i128:128-f80:128-n8:16:32:64-S128"
target triple = "x86_64-pc-linux-gnu"

%"class.icu_77::UMutex" = type { [40 x i8], %"struct.std::atomic", ptr }
%"struct.std::atomic" = type { %"struct.std::__atomic_base" }
%"struct.std::__atomic_base" = type { ptr }
%"class.icu_77::Mutex" = type { ptr }

@_ZL13registryMutex = internal global %"class.icu_77::UMutex" zeroinitializer, align 8
@_ZL8registry = internal global ptr null, align 8

; Function Attrs: mustprogress nounwind uwtable
define linkonce_odr void @_ZN6icu_775MutexD2Ev(ptr noundef nonnull align 8 dereferenceable(8) %0) unnamed_addr #0 comdat align 2 personality ptr @__gxx_personality_v0 {
  %2 = alloca ptr, align 8
  store ptr %0, ptr %2, align 8, !tbaa !133
  %3 = load ptr, ptr %2, align 8
  %4 = getelementptr inbounds nuw %"class.icu_77::Mutex", ptr %3, i32 0, i32 0
  %5 = load ptr, ptr %4, align 8, !tbaa !137
  invoke void @umtx_unlock_77(ptr noundef %5)
          to label %6 unwind label %7

6:                                                ; preds = %1
  ret void

7:                                                ; preds = %1
  %8 = landingpad { ptr, i32 }
          catch ptr null
  %9 = extractvalue { ptr, i32 } %8, 0
  call void @__clang_call_terminate(ptr %9) #17
  unreachable
}

; Function Attrs: mustprogress uwtable
define noundef i32 @_ZN6icu_7714Transliterator22_countAvailableSourcesEv() #1 align 2 {
  %1 = load ptr, ptr @_ZL8registry, align 8, !tbaa !86
  %2 = call noundef i32 @_ZNK6icu_7722TransliteratorRegistry21countAvailableSourcesEv(ptr noundef nonnull align 8 dereferenceable(312) %1)
  ret i32 %2
}

; Function Attrs: mustprogress uwtable
define linkonce_odr void @_ZN6icu_775MutexC2EPNS_6UMutexE(ptr noundef nonnull align 8 dereferenceable(8) %0, ptr noundef %1) unnamed_addr #1 comdat align 2 {
  %3 = alloca ptr, align 8
  %4 = alloca ptr, align 8
  store ptr %0, ptr %3, align 8, !tbaa !133
  store ptr %1, ptr %4, align 8, !tbaa !135
  %5 = load ptr, ptr %3, align 8
  %6 = getelementptr inbounds nuw %"class.icu_77::Mutex", ptr %5, i32 0, i32 0
  %7 = load ptr, ptr %4, align 8, !tbaa !135
  store ptr %7, ptr %6, align 8, !tbaa !137
  %8 = getelementptr inbounds nuw %"class.icu_77::Mutex", ptr %5, i32 0, i32 0
  %9 = load ptr, ptr %8, align 8, !tbaa !137
  call void @umtx_lock_77(ptr noundef %9)
  ret void
}

; Function Attrs: mustprogress uwtable
define noundef i32 @_ZN6icu_7714Transliterator21countAvailableSourcesEv() #1 align 2 personality ptr @__gxx_personality_v0 {
  %1 = alloca %"class.icu_77::Mutex", align 8
  %2 = alloca i32, align 4
  %3 = alloca ptr, align 8
  %4 = alloca i32, align 4
  call void @llvm.lifetime.start.p0(i64 8, ptr %1) #15
  call void @_ZN6icu_775MutexC2EPNS_6UMutexE(ptr noundef nonnull align 8 dereferenceable(8) %1, ptr noundef @_ZL13registryMutex)
  call void @llvm.lifetime.start.p0(i64 4, ptr %2) #15
  store i32 0, ptr %2, align 4, !tbaa !15
  %5 = load ptr, ptr @_ZL8registry, align 8, !tbaa !86
  %6 = icmp ne ptr %5, null
  br i1 %6, label %11, label %7

7:                                                ; preds = %0
  %8 = invoke noundef signext i8 @_ZN6icu_7714Transliterator18initializeRegistryER10UErrorCode(ptr noundef nonnull align 4 dereferenceable(4) %2)
          to label %9 unwind label %17

9:                                                ; preds = %7
  %10 = icmp ne i8 %8, 0
  br i1 %10, label %11, label %14

11:                                               ; preds = %9, %0
  %12 = invoke noundef i32 @_ZN6icu_7714Transliterator22_countAvailableSourcesEv()
          to label %13 unwind label %17

13:                                               ; preds = %11
  br label %15

14:                                               ; preds = %9
  br label %15

15:                                               ; preds = %14, %13
  %16 = phi i32 [ %12, %13 ], [ 0, %14 ]
  call void @llvm.lifetime.end.p0(i64 4, ptr %2) #15
  call void @_ZN6icu_775MutexD2Ev(ptr noundef nonnull align 8 dereferenceable(8) %1) #15
  call void @llvm.lifetime.end.p0(i64 8, ptr %1) #15
  ret i32 %16

17:                                               ; preds = %11, %7
  %18 = landingpad { ptr, i32 }
          cleanup
  %19 = extractvalue { ptr, i32 } %18, 0
  store ptr %19, ptr %3, align 8
  %20 = extractvalue { ptr, i32 } %18, 1
  store i32 %20, ptr %4, align 4
  call void @llvm.lifetime.end.p0(i64 4, ptr %2) #15
  call void @_ZN6icu_775MutexD2Ev(ptr noundef nonnull align 8 dereferenceable(8) %1) #15
  call void @llvm.lifetime.end.p0(i64 8, ptr %1) #15
  br label %21

21:                                               ; preds = %17
  %22 = load ptr, ptr %3, align 8
  %23 = load i32, ptr %4, align 4
  %24 = insertvalue { ptr, i32 } poison, ptr %22, 0
  %25 = insertvalue { ptr, i32 } %24, i32 %23, 1
  resume { ptr, i32 } %25
}