; Function Attrs: mustprogress uwtable
define noundef i32 @_ZN6icu_7714Transliterator21countAvailableSourcesEv() local_unnamed_addr #1 align 2 personality ptr @__gxx_personality_v0 {
  %1 = alloca i32, align 4
  tail call void @umtx_lock_77(ptr noundef nonnull @_ZL13registryMutex)
  call void @llvm.lifetime.start.p0(i64 4, ptr nonnull %1) #21
  store i32 0, ptr %1, align 4, !tbaa !13
  %2 = load ptr, ptr @_ZL8registry, align 8, !tbaa !49
  %.not = icmp eq ptr %2, null
  br i1 %.not, label %3, label %6

3:                                                ; preds = %0
  %4 = invoke noundef signext i8 @_ZN6icu_7714Transliterator18initializeRegistryER10UErrorCode(ptr noundef nonnull align 4 dereferenceable(4) %1)
          to label %5 unwind label %13

5:                                                ; preds = %3
  %.not1 = icmp eq i8 %4, 0
  br i1 %.not1, label %_ZN6icu_7714Transliterator22_countAvailableSourcesEv.exit, label %._crit_edge

._crit_edge:                                      ; preds = %5
  %.pre = load ptr, ptr @_ZL8registry, align 8, !tbaa !49
  br label %6

6:                                                ; preds = %._crit_edge, %0
  %7 = phi ptr [ %.pre, %._crit_edge ], [ %2, %0 ]
  %8 = invoke noundef i32 @_ZNK6icu_7722TransliteratorRegistry21countAvailableSourcesEv(ptr noundef nonnull align 8 dereferenceable(312) %7)
          to label %_ZN6icu_7714Transliterator22_countAvailableSourcesEv.exit unwind label %13

_ZN6icu_7714Transliterator22_countAvailableSourcesEv.exit: ; preds = %6, %5
  %9 = phi i32 [ 0, %5 ], [ %8, %6 ]
  call void @llvm.lifetime.end.p0(i64 4, ptr nonnull %1) #21
  invoke void @umtx_unlock_77(ptr noundef nonnull @_ZL13registryMutex)
          to label %_ZN6icu_775MutexD2Ev.exit unwind label %10

10:                                               ; preds = %_ZN6icu_7714Transliterator22_countAvailableSourcesEv.exit
  %11 = landingpad { ptr, i32 }
          catch ptr null
  %12 = extractvalue { ptr, i32 } %11, 0
  call void @__clang_call_terminate(ptr %12) #23
  unreachable

_ZN6icu_775MutexD2Ev.exit:                        ; preds = %_ZN6icu_7714Transliterator22_countAvailableSourcesEv.exit
  ret i32 %9

13:                                               ; preds = %6, %3
  %14 = landingpad { ptr, i32 }
          cleanup
  call void @llvm.lifetime.end.p0(i64 4, ptr nonnull %1) #21
  invoke void @umtx_unlock_77(ptr noundef nonnull @_ZL13registryMutex)
          to label %_ZN6icu_775MutexD2Ev.exit2 unwind label %15

15:                                               ; preds = %13
  %16 = landingpad { ptr, i32 }
          catch ptr null
  %17 = extractvalue { ptr, i32 } %16, 0
  call void @__clang_call_terminate(ptr %17) #23
  unreachable

_ZN6icu_775MutexD2Ev.exit2:                       ; preds = %13
  resume { ptr, i32 } %14
}